target datalayout = "e-m:e-p270:32:32-p271:32:32-p272:64:64-i64:64-i128:128-f80:128-n8:16:32:64-S128"
target triple = "x86_64-pc-linux-gnu"

%struct.lua_State = type { %struct.GCRef, i8, i8, i8, i8, %struct.MRef, %struct.GCRef, ptr, ptr, %struct.MRef, %struct.MRef, %struct.GCRef, %struct.GCRef, ptr, i32 }
%struct.MRef = type { i64 }
%struct.GCRef = type { i64 }
%struct.global_State = type { ptr, ptr, %struct.GCState, %struct.GCstr, i8, i8, i8, i8, %struct.StrInternState, i32, %struct.GCRef, %struct.SBuf, %union.TValue, %union.TValue, %struct.Node, %union.TValue, %struct.GCupval, i32, i32, ptr, ptr, ptr, i32, i32, %struct.GCRef, %struct.MRef, %struct.MRef, %struct.PRNGState, [39 x %struct.GCRef] }
%struct.GCState = type { i64, i64, i8, i8, i8, i8, i32, %struct.GCRef, %struct.MRef, %struct.GCRef, %struct.GCRef, %struct.GCRef, %struct.GCRef, i64, i64, i32, i32, %struct.MRef }
%struct.GCstr = type { %struct.GCRef, i8, i8, i8, i8, i32, i32, i32 }
%struct.StrInternState = type { ptr, i32, i32, i32, i8, i8, i8, i8, i64 }
%struct.SBuf = type { ptr, ptr, ptr, %struct.MRef }
%struct.Node = type { %union.TValue, %union.TValue, %struct.MRef }
%union.TValue = type { i64 }
%struct.GCupval = type { %struct.GCRef, i8, i8, i8, i8, %union.anon, %struct.MRef, i32 }
%union.anon = type { %struct.anon.1 }
%struct.anon.1 = type { %struct.GCRef, %struct.GCRef }
%struct.PRNGState = type { [4 x i64] }

@.str.2 = private unnamed_addr constant [24 x i8] c"store to dead GC object\00", align 1

; Function Attrs: alwaysinline nounwind uwtable
define internal void @checklivetv(ptr noundef %0, ptr noundef %1, ptr noundef %2) #3 {
  %4 = alloca ptr, align 8
  %5 = alloca ptr, align 8
  %6 = alloca ptr, align 8
  store ptr %0, ptr %4, align 8, !tbaa !4
  store ptr %1, ptr %5, align 8, !tbaa !25
  store ptr %2, ptr %6, align 8, !tbaa !31
  ret void
}

; Function Attrs: alwaysinline nounwind uwtable
define internal void @setgcVraw(ptr noundef %0, ptr noundef %1, i32 noundef %2) #3 {
  %4 = alloca ptr, align 8
  %5 = alloca ptr, align 8
  %6 = alloca i32, align 4
  store ptr %0, ptr %4, align 8, !tbaa !25
  store ptr %1, ptr %5, align 8, !tbaa !64
  store i32 %2, ptr %6, align 4, !tbaa !30
  %7 = load ptr, ptr %5, align 8, !tbaa !64
  %8 = ptrtoint ptr %7 to i64
  %9 = load i32, ptr %6, align 4, !tbaa !30
  %10 = zext i32 %9 to i64
  %11 = shl i64 %10, 47
  %12 = or i64 %8, %11
  %13 = load ptr, ptr %4, align 8, !tbaa !25
  %14 = getelementptr inbounds nuw %struct.GCRef, ptr %13, i32 0, i32 0
  store i64 %12, ptr %14, align 8, !tbaa !22
  ret void
}

; Function Attrs: alwaysinline nounwind uwtable
define internal void @setgcV(ptr noundef %0, ptr noundef %1, ptr noundef %2, i32 noundef %3) #3 {
  %5 = alloca ptr, align 8
  %6 = alloca ptr, align 8
  %7 = alloca ptr, align 8
  %8 = alloca i32, align 4
  store ptr %0, ptr %5, align 8, !tbaa !4
  store ptr %1, ptr %6, align 8, !tbaa !25
  store ptr %2, ptr %7, align 8, !tbaa !64
  store i32 %3, ptr %8, align 4, !tbaa !30
  %9 = load ptr, ptr %6, align 8, !tbaa !25
  %10 = load ptr, ptr %7, align 8, !tbaa !64
  %11 = load i32, ptr %8, align 4, !tbaa !30
  call void @setgcVraw(ptr noundef %9, ptr noundef %10, i32 noundef %11)
  %12 = load ptr, ptr %5, align 8, !tbaa !4
  %13 = load ptr, ptr %6, align 8, !tbaa !25
  call void @checklivetv(ptr noundef %12, ptr noundef %13, ptr noundef @.str.2)
  ret void
}

; Function Attrs: alwaysinline nounwind uwtable
define internal void @setstrV(ptr noundef %0, ptr noundef %1, ptr noundef %2) #3 {
  %4 = alloca ptr, align 8
  %5 = alloca ptr, align 8
  %6 = alloca ptr, align 8
  store ptr %0, ptr %4, align 8, !tbaa !4
  store ptr %1, ptr %5, align 8, !tbaa !25
  store ptr %2, ptr %6, align 8, !tbaa !26
  %7 = load ptr, ptr %4, align 8, !tbaa !4
  %8 = load ptr, ptr %5, align 8, !tbaa !25
  %9 = load ptr, ptr %6, align 8, !tbaa !26
  call void @setgcV(ptr noundef %7, ptr noundef %8, ptr noundef %9, i32 noundef -5)
  ret void
}

; Function Attrs: alwaysinline nounwind uwtable
define internal ptr @lj_buf_str(ptr noundef %0, ptr noundef %1) #3 {
  %3 = alloca ptr, align 8
  %4 = alloca ptr, align 8
  store ptr %0, ptr %3, align 8, !tbaa !4
  store ptr %1, ptr %4, align 8, !tbaa !37
  %5 = load ptr, ptr %3, align 8, !tbaa !4
  %6 = load ptr, ptr %4, align 8, !tbaa !37
  %7 = getelementptr inbounds nuw %struct.SBuf, ptr %6, i32 0, i32 2
  %8 = load ptr, ptr %7, align 8, !tbaa !67
  %9 = load ptr, ptr %4, align 8, !tbaa !37
  %10 = getelementptr inbounds nuw %struct.SBuf, ptr %9, i32 0, i32 0
  %11 = load ptr, ptr %10, align 8, !tbaa !68
  %12 = load ptr, ptr %4, align 8, !tbaa !37
  %13 = getelementptr inbounds nuw %struct.SBuf, ptr %12, i32 0, i32 2
  %14 = load ptr, ptr %13, align 8, !tbaa !67
  %15 = ptrtoint ptr %11 to i64
  %16 = ptrtoint ptr %14 to i64
  %17 = sub i64 %15, %16
  %18 = trunc i64 %17 to i32
  %19 = zext i32 %18 to i64
  %20 = call ptr @lj_str_new(ptr noundef %5, ptr noundef %8, i64 noundef %19)
  ret ptr %20
}

; Function Attrs: alwaysinline nounwind uwtable
define internal void @lj_buf_reset(ptr noundef %0) #3 {
  %2 = alloca ptr, align 8
  store ptr %0, ptr %2, align 8, !tbaa !37
  %3 = load ptr, ptr %2, align 8, !tbaa !37
  %4 = getelementptr inbounds nuw %struct.SBuf, ptr %3, i32 0, i32 2
  %5 = load ptr, ptr %4, align 8, !tbaa !67
  %6 = load ptr, ptr %2, align 8, !tbaa !37
  %7 = getelementptr inbounds nuw %struct.SBuf, ptr %6, i32 0, i32 0
  store ptr %5, ptr %7, align 8, !tbaa !68
  ret void
}

; Function Attrs: alwaysinline nounwind uwtable
define internal ptr @lj_buf_tmp_(ptr noundef %0) #3 {
  %2 = alloca ptr, align 8
  %3 = alloca ptr, align 8
  store ptr %0, ptr %2, align 8, !tbaa !4
  call void @llvm.lifetime.start.p0(i64 8, ptr %3) #7
  %4 = load ptr, ptr %2, align 8, !tbaa !4
  %5 = getelementptr inbounds nuw %struct.lua_State, ptr %4, i32 0, i32 5
  %6 = getelementptr inbounds nuw %struct.MRef, ptr %5, i32 0, i32 0
  %7 = load i64, ptr %6, align 8, !tbaa !11
  %8 = inttoptr i64 %7 to ptr
  %9 = getelementptr inbounds nuw %struct.global_State, ptr %8, i32 0, i32 11
  store ptr %9, ptr %3, align 8, !tbaa !37
  %10 = load ptr, ptr %2, align 8, !tbaa !4
  %11 = ptrtoint ptr %10 to i64
  %12 = load ptr, ptr %3, align 8, !tbaa !37
  %13 = getelementptr inbounds nuw %struct.SBuf, ptr %12, i32 0, i32 3
  %14 = getelementptr inbounds nuw %struct.MRef, ptr %13, i32 0, i32 0
  store i64 %11, ptr %14, align 8, !tbaa !66
  %15 = load ptr, ptr %3, align 8, !tbaa !37
  call void @lj_buf_reset(ptr noundef %15)
  %16 = load ptr, ptr %3, align 8, !tbaa !37
  call void @llvm.lifetime.end.p0(i64 8, ptr %3) #7
  ret ptr %16
}

; Function Attrs: nounwind uwtable
define internal i32 @lj_cf_string_rep(ptr noundef %0) #0 {
  %2 = alloca ptr, align 8
  %3 = alloca ptr, align 8
  %4 = alloca i32, align 4
  %5 = alloca ptr, align 8
  %6 = alloca ptr, align 8
  %7 = alloca ptr, align 8
  store ptr %0, ptr %2, align 8, !tbaa !4
  call void @llvm.lifetime.start.p0(i64 8, ptr %3) #7
  %8 = load ptr, ptr %2, align 8, !tbaa !4
  %9 = call ptr @lj_lib_checkstr(ptr noundef %8, i32 noundef 1)
  store ptr %9, ptr %3, align 8, !tbaa !26
  call void @llvm.lifetime.start.p0(i64 4, ptr %4) #7
  %10 = load ptr, ptr %2, align 8, !tbaa !4
  %11 = call i32 @lj_lib_checkint(ptr noundef %10, i32 noundef 2)
  store i32 %11, ptr %4, align 4, !tbaa !30
  call void @llvm.lifetime.start.p0(i64 8, ptr %5) #7
  %12 = load ptr, ptr %2, align 8, !tbaa !4
  %13 = call ptr @lj_lib_optstr(ptr noundef %12, i32 noundef 3)
  store ptr %13, ptr %5, align 8, !tbaa !26
  call void @llvm.lifetime.start.p0(i64 8, ptr %6) #7
  %14 = load ptr, ptr %2, align 8, !tbaa !4
  %15 = call ptr @lj_buf_tmp_(ptr noundef %14)
  store ptr %15, ptr %6, align 8, !tbaa !37
  %16 = load ptr, ptr %5, align 8, !tbaa !26
  %17 = icmp ne ptr %16, null
  br i1 %17, label %18, label %33

18:                                               ; preds = %1
  %19 = load i32, ptr %4, align 4, !tbaa !30
  %20 = icmp sgt i32 %19, 1
  br i1 %20, label %21, label %33

21:                                               ; preds = %18
  call void @llvm.lifetime.start.p0(i64 8, ptr %7) #7
  %22 = load ptr, ptr %2, align 8, !tbaa !4
  %23 = load ptr, ptr %5, align 8, !tbaa !26
  %24 = load ptr, ptr %3, align 8, !tbaa !26
  %25 = call ptr @lj_buf_cat2str(ptr noundef %22, ptr noundef %23, ptr noundef %24)
  store ptr %25, ptr %7, align 8, !tbaa !26
  %26 = load ptr, ptr %6, align 8, !tbaa !37
  call void @lj_buf_reset(ptr noundef %26)
  %27 = load ptr, ptr %6, align 8, !tbaa !37
  %28 = load ptr, ptr %3, align 8, !tbaa !26
  %29 = call ptr @lj_buf_putstr(ptr noundef %27, ptr noundef %28)
  %30 = load ptr, ptr %7, align 8, !tbaa !26
  store ptr %30, ptr %3, align 8, !tbaa !26
  %31 = load i32, ptr %4, align 4, !tbaa !30
  %32 = add nsw i32 %31, -1
  store i32 %32, ptr %4, align 4, !tbaa !30
  call void @llvm.lifetime.end.p0(i64 8, ptr %7) #7
  br label %33

33:                                               ; preds = %21, %18, %1
  %34 = load ptr, ptr %6, align 8, !tbaa !37
  %35 = load ptr, ptr %3, align 8, !tbaa !26
  %36 = load i32, ptr %4, align 4, !tbaa !30
  %37 = call ptr @lj_buf_putstr_rep(ptr noundef %34, ptr noundef %35, i32 noundef %36)
  store ptr %37, ptr %6, align 8, !tbaa !37
  %38 = load ptr, ptr %2, align 8, !tbaa !4
  %39 = load ptr, ptr %2, align 8, !tbaa !4
  %40 = getelementptr inbounds nuw %struct.lua_State, ptr %39, i32 0, i32 8
  %41 = load ptr, ptr %40, align 8, !tbaa !21
  %42 = getelementptr inbounds %union.TValue, ptr %41, i64 -1
  %43 = load ptr, ptr %2, align 8, !tbaa !4
  %44 = load ptr, ptr %6, align 8, !tbaa !37
  %45 = call ptr @lj_buf_str(ptr noundef %43, ptr noundef %44)
  call void @setstrV(ptr noundef %38, ptr noundef %42, ptr noundef %45)
  %46 = load ptr, ptr %2, align 8, !tbaa !4
  %47 = getelementptr inbounds nuw %struct.lua_State, ptr %46, i32 0, i32 5
  %48 = getelementptr inbounds nuw %struct.MRef, ptr %47, i32 0, i32 0
  %49 = load i64, ptr %48, align 8, !tbaa !11
  %50 = inttoptr i64 %49 to ptr
  %51 = getelementptr inbounds nuw %struct.global_State, ptr %50, i32 0, i32 2
  %52 = getelementptr inbounds nuw %struct.GCState, ptr %51, i32 0, i32 0
  %53 = load i64, ptr %52, align 8, !tbaa !39
  %54 = load ptr, ptr %2, align 8, !tbaa !4
  %55 = getelementptr inbounds nuw %struct.lua_State, ptr %54, i32 0, i32 5
  %56 = getelementptr inbounds nuw %struct.MRef, ptr %55, i32 0, i32 0
  %57 = load i64, ptr %56, align 8, !tbaa !11
  %58 = inttoptr i64 %57 to ptr
  %59 = getelementptr inbounds nuw %struct.global_State, ptr %58, i32 0, i32 2
  %60 = getelementptr inbounds nuw %struct.GCState, ptr %59, i32 0, i32 1
  %61 = load i64, ptr %60, align 8, !tbaa !48
  %62 = icmp uge i64 %53, %61
  %63 = xor i1 %62, true
  %64 = xor i1 %63, true
  %65 = zext i1 %64 to i32
  %66 = sext i32 %65 to i64
  %67 = call i64 @llvm.expect.i64(i64 %66, i64 0)
  %68 = icmp ne i64 %67, 0
  br i1 %68, label %69, label %72

69:                                               ; preds = %33
  %70 = load ptr, ptr %2, align 8, !tbaa !4
  %71 = call i32 @lj_gc_step(ptr noundef %70)
  br label %72

72:                                               ; preds = %69, %33
  call void @llvm.lifetime.end.p0(i64 8, ptr %6) #7
  call void @llvm.lifetime.end.p0(i64 8, ptr %5) #7
  call void @llvm.lifetime.end.p0(i64 4, ptr %4) #7
  call void @llvm.lifetime.end.p0(i64 8, ptr %3) #7
  ret i32 1
}