; Function Attrs: nounwind uwtable
define internal noundef i32 @lj_cf_string_rep(ptr noundef %0) #0 {
  %2 = tail call ptr @lj_lib_checkstr(ptr noundef %0, i32 noundef 1) #7
  %3 = tail call i32 @lj_lib_checkint(ptr noundef %0, i32 noundef 2) #7
  %4 = tail call ptr @lj_lib_optstr(ptr noundef %0, i32 noundef 3) #7
  %5 = getelementptr inbounds nuw i8, ptr %0, i64 16
  %6 = load i64, ptr %5, align 8, !tbaa !4
  %7 = inttoptr i64 %6 to ptr
  %8 = getelementptr inbounds nuw i8, ptr %7, i64 200
  %9 = ptrtoint ptr %0 to i64
  %10 = getelementptr inbounds nuw i8, ptr %7, i64 224
  store i64 %9, ptr %10, align 8, !tbaa !26
  %11 = getelementptr inbounds nuw i8, ptr %7, i64 216
  %12 = load ptr, ptr %11, align 8, !tbaa !29
  store ptr %12, ptr %8, align 8, !tbaa !30
  %13 = icmp ne ptr %4, null
  %14 = icmp sgt i32 %3, 1
  %or.cond = select i1 %13, i1 %14, i1 false
  br i1 %or.cond, label %15, label %20

15:                                               ; preds = %1
  %16 = tail call ptr @lj_buf_cat2str(ptr noundef nonnull %0, ptr noundef nonnull %4, ptr noundef %2) #7
  %17 = load ptr, ptr %11, align 8, !tbaa !29
  store ptr %17, ptr %8, align 8, !tbaa !30
  %18 = tail call ptr @lj_buf_putstr(ptr noundef nonnull %8, ptr noundef %2) #7
  %19 = add nsw i32 %3, -1
  br label %20

20:                                               ; preds = %15, %1
  %.024 = phi i32 [ %19, %15 ], [ %3, %1 ]
  %.0 = phi ptr [ %16, %15 ], [ %2, %1 ]
  %21 = tail call ptr @lj_buf_putstr_rep(ptr noundef nonnull %8, ptr noundef %.0, i32 noundef %.024) #7
  %22 = getelementptr inbounds nuw i8, ptr %0, i64 40
  %23 = load ptr, ptr %22, align 8, !tbaa !15
  %24 = getelementptr inbounds i8, ptr %23, i64 -8
  %25 = getelementptr inbounds nuw i8, ptr %21, i64 16
  %26 = load ptr, ptr %25, align 8, !tbaa !29
  %27 = load ptr, ptr %21, align 8, !tbaa !30
  %28 = ptrtoint ptr %27 to i64
  %29 = ptrtoint ptr %26 to i64
  %30 = sub i64 %28, %29
  %31 = and i64 %30, 4294967295
  %32 = tail call ptr @lj_str_new(ptr noundef nonnull %0, ptr noundef %26, i64 noundef %31) #7
  %33 = ptrtoint ptr %32 to i64
  %34 = or i64 %33, -703687441776640
  store i64 %34, ptr %24, align 8, !tbaa !16
  %35 = load i64, ptr %5, align 8, !tbaa !4
  %36 = inttoptr i64 %35 to ptr
  %37 = getelementptr inbounds nuw i8, ptr %36, i64 16
  %38 = load i64, ptr %37, align 8, !tbaa !31
  %39 = getelementptr inbounds nuw i8, ptr %36, i64 24
  %40 = load i64, ptr %39, align 8, !tbaa !39
  %.not = icmp ult i64 %38, %40
  br i1 %.not, label %43, label %41, !prof !40

41:                                               ; preds = %20
  %42 = tail call i32 @lj_gc_step(ptr noundef nonnull %0) #7
  br label %43

43:                                               ; preds = %41, %20
  ret i32 1
}